; Function Attrs: nofree norecurse nosync nounwind memory(read, inaccessiblemem: none) uwtable
define double @N_VWSqrSumLocal_Serial(ptr noundef readonly captures(none) %0, ptr noundef readonly captures(none) %1) #8 {
  %3 = load ptr, ptr %0, align 8, !tbaa !54
  %4 = load i64, ptr %3, align 8, !tbaa !55
  %5 = getelementptr inbounds nuw i8, ptr %3, i64 16
  %6 = load ptr, ptr %5, align 8, !tbaa !61
  %7 = load ptr, ptr %1, align 8, !tbaa !54
  %8 = getelementptr inbounds nuw i8, ptr %7, i64 16
  %9 = load ptr, ptr %8, align 8, !tbaa !61
  %10 = icmp sgt i64 %4, 0
  br i1 %10, label %.lr.ph, label %._crit_edge

.lr.ph:                                           ; preds = %2, %.lr.ph
  %.015 = phi i64 [ %17, %.lr.ph ], [ 0, %2 ]
  %.01314 = phi double [ %16, %.lr.ph ], [ 0.000000e+00, %2 ]
  %11 = getelementptr inbounds nuw double, ptr %6, i64 %.015
  %12 = load double, ptr %11, align 8, !tbaa !64
  %13 = getelementptr inbounds nuw double, ptr %9, i64 %.015
  %14 = load double, ptr %13, align 8, !tbaa !64
  %15 = fmul double %12, %14
  %16 = tail call double @llvm.fmuladd.f64(double %15, double %15, double %.01314)
  %17 = add nuw nsw i64 %.015, 1
  %exitcond.not = icmp eq i64 %17, %4
  br i1 %exitcond.not, label %._crit_edge, label %.lr.ph

._crit_edge:                                      ; preds = %.lr.ph, %2
  %.013.lcssa = phi double [ 0.000000e+00, %2 ], [ %16, %.lr.ph ]
  ret double %.013.lcssa
}